target datalayout = "e-m:e-p270:32:32-p271:32:32-p272:64:64-i64:64-i128:128-f80:128-n8:16:32:64-S128"
target triple = "x86_64-pc-linux-gnu"

%struct.SDL_GUID = type { [16 x i8] }
%struct.SDL_Gamepad = type { ptr, i32, ptr, i32, i32, ptr, i32, ptr, ptr, ptr, i64, ptr }
%struct.SDL_Joystick = type { i32, ptr, ptr, ptr, %struct.SDL_GUID, i16, i64, i8, i8, i32, ptr, i32, ptr, i32, ptr, i32, ptr, i32, ptr, i32, i32, ptr, i16, i16, i64, i64, i16, i16, i64, i64, i8, i8, i8, i64, i8, i32, i32, i32, i8, i32, ptr, i32, ptr, [3 x [3 x float]], i64, ptr, ptr, i32, i32, ptr }

@SDL_gamepads_initialized = internal global i8 0, align 1
@SDL_gamepads = internal global ptr null, align 8

; Function Attrs: nounwind uwtable
define hidden void @SDL_QuitGamepads() #0 {
  %1 = alloca ptr, align 8
  call void @llvm.lifetime.start.p0(i64 8, ptr %1) #8
  call void @SDL_LockJoysticks_REAL()
  %2 = load ptr, ptr @SDL_gamepads, align 8
  store ptr %2, ptr %1, align 8
  br label %3

3:                                                ; preds = %12, %0
  %4 = load ptr, ptr %1, align 8
  %5 = icmp ne ptr %4, null
  br i1 %5, label %6, label %16

6:                                                ; preds = %3
  %7 = load ptr, ptr %1, align 8
  %8 = getelementptr inbounds nuw %struct.SDL_Gamepad, ptr %7, i32 0, i32 0
  %9 = load ptr, ptr %8, align 8
  %10 = getelementptr inbounds nuw %struct.SDL_Joystick, ptr %9, i32 0, i32 0
  %11 = load i32, ptr %10, align 8
  call void @SDL_PrivateGamepadRemoved(i32 noundef %11)
  br label %12

12:                                               ; preds = %6
  %13 = load ptr, ptr %1, align 8
  %14 = getelementptr inbounds nuw %struct.SDL_Gamepad, ptr %13, i32 0, i32 11
  %15 = load ptr, ptr %14, align 8
  store ptr %15, ptr %1, align 8
  br label %3, !llvm.loop !49

16:                                               ; preds = %3
  store i8 0, ptr @SDL_gamepads_initialized, align 1
  call void @SDL_RemoveEventWatch_REAL(ptr noundef @SDL_GamepadEventWatcher, ptr noundef null)
  br label %17

17:                                               ; preds = %20, %16
  %18 = load ptr, ptr @SDL_gamepads, align 8
  %19 = icmp ne ptr %18, null
  br i1 %19, label %20, label %24

20:                                               ; preds = %17
  %21 = load ptr, ptr @SDL_gamepads, align 8
  %22 = getelementptr inbounds nuw %struct.SDL_Gamepad, ptr %21, i32 0, i32 1
  store i32 1, ptr %22, align 8
  %23 = load ptr, ptr @SDL_gamepads, align 8
  call void @SDL_CloseGamepad_REAL(ptr noundef %23)
  br label %17, !llvm.loop !50

24:                                               ; preds = %17
  call void @SDL_UnlockJoysticks_REAL()
  call void @llvm.lifetime.end.p0(i64 8, ptr %1) #8
  ret void
}