; Function Attrs: nounwind uwtable
define hidden void @SDL_QuitGamepads() local_unnamed_addr #0 {
  tail call void @SDL_LockJoysticks_REAL() #10
  %.05 = load ptr, ptr @SDL_gamepads, align 8
  %.not6 = icmp eq ptr %.05, null
  br i1 %.not6, label %._crit_edge, label %.lr.ph

.lr.ph:                                           ; preds = %0, %.lr.ph
  %.07 = phi ptr [ %.0, %.lr.ph ], [ %.05, %0 ]
  %1 = load ptr, ptr %.07, align 8
  %2 = load i32, ptr %1, align 8
  tail call void @SDL_PrivateGamepadRemoved(i32 noundef %2)
  %3 = getelementptr inbounds nuw i8, ptr %.07, i64 80
  %.0 = load ptr, ptr %3, align 8
  %.not = icmp eq ptr %.0, null
  br i1 %.not, label %._crit_edge, label %.lr.ph, !llvm.loop !58

._crit_edge:                                      ; preds = %.lr.ph, %0
  store i1 false, ptr @SDL_gamepads_initialized, align 1
  tail call void @SDL_RemoveEventWatch_REAL(ptr noundef nonnull @SDL_GamepadEventWatcher, ptr noundef null) #10
  %4 = load ptr, ptr @SDL_gamepads, align 8
  %.not48 = icmp eq ptr %4, null
  br i1 %.not48, label %._crit_edge11, label %.lr.ph10

.lr.ph10:                                         ; preds = %._crit_edge, %.lr.ph10
  %5 = phi ptr [ %7, %.lr.ph10 ], [ %4, %._crit_edge ]
  %6 = getelementptr inbounds nuw i8, ptr %5, i64 8
  store i32 1, ptr %6, align 8
  tail call void @SDL_CloseGamepad_REAL(ptr noundef nonnull %5)
  %7 = load ptr, ptr @SDL_gamepads, align 8
  %.not4 = icmp eq ptr %7, null
  br i1 %.not4, label %._crit_edge11, label %.lr.ph10, !llvm.loop !59

._crit_edge11:                                    ; preds = %.lr.ph10, %._crit_edge
  tail call void @SDL_UnlockJoysticks_REAL() #10
  ret void
}